(i__main__
rental
p0
(dp1
S'price'
p2
I64
sS'model'
p3
S'ADSF'
p4
sS'name'
p5
S'DSGFDGFH'
p6
sS'year'
p7
I54654
sb.(i__main__
rental
p0
(dp1
S'price'
p2
I85
sS'model'
p3
S'XVC'
p4
sS'name'
p5
S'FC'
p6
sS'year'
p7
I85
sb.