(i__main__
emp
p0
(dp1
S'salary'
p2
I34000
sS'empname'
p3
S'Mebin Johnson'
p4
sS'empno'
p5
I123
sb.(i__main__
emp
p0
(dp1
S'salary'
p2
I6789
sS'empname'
p3
S'Ashish Suraj Bhan'
p4
sS'empno'
p5
I134
sb.